target datalayout = "e-m:e-p270:32:32-p271:32:32-p272:64:64-i64:64-i128:128-f80:128-n8:16:32:64-S128"
target triple = "x86_64-pc-linux-gnu"

%struct.LWLock = type { i16, %struct.pg_atomic_uint32, %struct.proclist_head }
%struct.pg_atomic_uint32 = type { i32 }
%struct.proclist_head = type { i32, i32 }
%struct.ReplicationState = type { i16, i64, i64, i32, %struct.ConditionVariable, %struct.LWLock }
%struct.ConditionVariable = type { i8, %struct.proclist_head }
%struct.FunctionCallInfoBaseData = type { ptr, ptr, ptr, i32, i8, i16, [0 x %struct.NullableDatum] }
%struct.NullableDatum = type { i64, i8 }

@.str.1 = private unnamed_addr constant [9 x i8] c"origin.c\00", align 1
@session_replication_state = internal global ptr null, align 8
@.str.26 = private unnamed_addr constant [36 x i8] c"no replication origin is configured\00", align 1
@__func__.pg_replication_origin_session_progress = private unnamed_addr constant [39 x i8] c"pg_replication_origin_session_progress\00", align 1

; Function Attrs: inlinehint nounwind uwtable
define internal i64 @Int64GetDatum(i64 noundef %0) #2 {
  %2 = alloca i64, align 8
  store i64 %0, ptr %2, align 8
  %3 = load i64, ptr %2, align 8
  ret i64 %3
}

; Function Attrs: inlinehint nounwind uwtable
define internal i64 @LSNGetDatum(i64 noundef %0) #2 {
  %2 = alloca i64, align 8
  store i64 %0, ptr %2, align 8
  %3 = load i64, ptr %2, align 8
  %4 = call i64 @Int64GetDatum(i64 noundef %3)
  ret i64 %4
}

; Function Attrs: nounwind uwtable
define dso_local i64 @replorigin_session_get_progress(i1 noundef zeroext %0) #0 {
  %2 = alloca i8, align 1
  %3 = alloca i64, align 8
  %4 = alloca i64, align 8
  %5 = zext i1 %0 to i8
  store i8 %5, ptr %2, align 1
  call void @llvm.lifetime.start.p0(i64 8, ptr %3) #9
  call void @llvm.lifetime.start.p0(i64 8, ptr %4) #9
  %6 = load ptr, ptr @session_replication_state, align 8
  %7 = getelementptr inbounds nuw %struct.ReplicationState, ptr %6, i32 0, i32 5
  %8 = call zeroext i1 @LWLockAcquire(ptr noundef %7, i32 noundef 1)
  %9 = load ptr, ptr @session_replication_state, align 8
  %10 = getelementptr inbounds nuw %struct.ReplicationState, ptr %9, i32 0, i32 1
  %11 = load i64, ptr %10, align 8
  store i64 %11, ptr %3, align 8
  %12 = load ptr, ptr @session_replication_state, align 8
  %13 = getelementptr inbounds nuw %struct.ReplicationState, ptr %12, i32 0, i32 2
  %14 = load i64, ptr %13, align 8
  store i64 %14, ptr %4, align 8
  %15 = load ptr, ptr @session_replication_state, align 8
  %16 = getelementptr inbounds nuw %struct.ReplicationState, ptr %15, i32 0, i32 5
  call void @LWLockRelease(ptr noundef %16)
  %17 = load i8, ptr %2, align 1, !range !4, !noundef !5
  %18 = trunc i8 %17 to i1
  br i1 %18, label %19, label %24

19:                                               ; preds = %1
  %20 = load i64, ptr %4, align 8
  %21 = icmp ne i64 %20, 0
  br i1 %21, label %22, label %24

22:                                               ; preds = %19
  %23 = load i64, ptr %4, align 8
  call void @XLogFlush(i64 noundef %23)
  br label %24

24:                                               ; preds = %22, %19, %1
  %25 = load i64, ptr %3, align 8
  call void @llvm.lifetime.end.p0(i64 8, ptr %4) #9
  call void @llvm.lifetime.end.p0(i64 8, ptr %3) #9
  ret i64 %25
}

; Function Attrs: inlinehint nounwind uwtable
define internal zeroext i1 @DatumGetBool(i64 noundef %0) #2 {
  %2 = alloca i64, align 8
  store i64 %0, ptr %2, align 8
  %3 = load i64, ptr %2, align 8
  %4 = icmp ne i64 %3, 0
  ret i1 %4
}

; Function Attrs: nounwind uwtable
define dso_local i64 @pg_replication_origin_session_progress(ptr noundef %0) #0 {
  %2 = alloca i64, align 8
  %3 = alloca ptr, align 8
  %4 = alloca i64, align 8
  %5 = alloca i8, align 1
  %6 = alloca i32, align 4
  store ptr %0, ptr %3, align 8
  call void @llvm.lifetime.start.p0(i64 8, ptr %4) #9
  store i64 0, ptr %4, align 8
  call void @llvm.lifetime.start.p0(i64 1, ptr %5) #9
  %7 = load ptr, ptr %3, align 8
  %8 = getelementptr inbounds nuw %struct.FunctionCallInfoBaseData, ptr %7, i32 0, i32 6
  %9 = getelementptr inbounds [0 x %struct.NullableDatum], ptr %8, i64 0, i64 0
  %10 = getelementptr inbounds nuw %struct.NullableDatum, ptr %9, i32 0, i32 0
  %11 = load i64, ptr %10, align 8
  %12 = call zeroext i1 @DatumGetBool(i64 noundef %11)
  %13 = zext i1 %12 to i8
  store i8 %13, ptr %5, align 1
  call void @replorigin_check_prerequisites(i1 noundef zeroext true, i1 noundef zeroext false)
  %14 = load ptr, ptr @session_replication_state, align 8
  %15 = icmp eq ptr %14, null
  br i1 %15, label %16, label %28

16:                                               ; preds = %1
  br label %17

17:                                               ; preds = %16
  br i1 true, label %18, label %20

18:                                               ; preds = %17
  %19 = call zeroext i1 @errstart_cold(i32 noundef 21, ptr noundef null) #10
  br i1 %19, label %22, label %25

20:                                               ; preds = %17
  %21 = call zeroext i1 @errstart(i32 noundef 21, ptr noundef null)
  br i1 %21, label %22, label %25

22:                                               ; preds = %20, %18
  %23 = call i32 @errcode(i32 noundef 325)
  %24 = call i32 (ptr, ...) @errmsg(ptr noundef @.str.26)
  call void @errfinish(ptr noundef @.str.1, i32 noundef 1419, ptr noundef @__func__.pg_replication_origin_session_progress)
  br label %25

25:                                               ; preds = %22, %20, %18
  unreachable

26:                                               ; No predecessors!
  br label %27

27:                                               ; preds = %26
  br label %28

28:                                               ; preds = %27, %1
  %29 = load i8, ptr %5, align 1, !range !4, !noundef !5
  %30 = trunc i8 %29 to i1
  %31 = call i64 @replorigin_session_get_progress(i1 noundef zeroext %30)
  store i64 %31, ptr %4, align 8
  %32 = load i64, ptr %4, align 8
  %33 = icmp eq i64 %32, 0
  br i1 %33, label %34, label %40

34:                                               ; preds = %28
  br label %35

35:                                               ; preds = %34
  %36 = load ptr, ptr %3, align 8
  %37 = getelementptr inbounds nuw %struct.FunctionCallInfoBaseData, ptr %36, i32 0, i32 4
  store i8 1, ptr %37, align 4
  store i64 0, ptr %2, align 8
  store i32 1, ptr %6, align 4
  br label %43

38:                                               ; No predecessors!
  br label %39

39:                                               ; preds = %38
  br label %40

40:                                               ; preds = %39, %28
  %41 = load i64, ptr %4, align 8
  %42 = call i64 @LSNGetDatum(i64 noundef %41)
  store i64 %42, ptr %2, align 8
  store i32 1, ptr %6, align 4
  br label %43

43:                                               ; preds = %40, %35
  call void @llvm.lifetime.end.p0(i64 1, ptr %5) #9
  call void @llvm.lifetime.end.p0(i64 8, ptr %4) #9
  %44 = load i64, ptr %2, align 8
  ret i64 %44
}