; Function Attrs: nounwind uwtable
define dso_local i64 @pg_replication_origin_session_progress(ptr noundef captures(none) %0) local_unnamed_addr #0 {
  %2 = getelementptr inbounds nuw i8, ptr %0, i64 32
  %3 = load i64, ptr %2, align 8
  tail call fastcc void @replorigin_check_prerequisites(i1 noundef zeroext true, i1 noundef zeroext false)
  %4 = load ptr, ptr @session_replication_state, align 8
  %5 = icmp eq ptr %4, null
  br i1 %5, label %6, label %10

6:                                                ; preds = %1
  %7 = tail call zeroext i1 @errstart_cold(i32 noundef 21, ptr noundef null) #11
  tail call void @llvm.assume(i1 %7)
  %8 = tail call i32 @errcode(i32 noundef 325) #10
  %9 = tail call i32 (ptr, ...) @errmsg(ptr noundef nonnull @.str.26) #10
  tail call void @errfinish(ptr noundef nonnull @.str.1, i32 noundef 1419, ptr noundef nonnull @__func__.pg_replication_origin_session_progress) #10
  unreachable

10:                                               ; preds = %1
  %11 = icmp ne i64 %3, 0
  %12 = getelementptr inbounds nuw i8, ptr %4, i64 40
  %13 = tail call zeroext i1 @LWLockAcquire(ptr noundef nonnull %12, i32 noundef 1) #10
  %14 = load ptr, ptr @session_replication_state, align 8
  %15 = getelementptr inbounds nuw i8, ptr %14, i64 8
  %16 = load i64, ptr %15, align 8
  %17 = getelementptr inbounds nuw i8, ptr %14, i64 16
  %18 = load i64, ptr %17, align 8
  %19 = getelementptr inbounds nuw i8, ptr %14, i64 40
  tail call void @LWLockRelease(ptr noundef nonnull %19) #10
  %20 = icmp ne i64 %18, 0
  %or.cond.i = select i1 %11, i1 %20, i1 false
  br i1 %or.cond.i, label %21, label %replorigin_session_get_progress.exit

21:                                               ; preds = %10
  tail call void @XLogFlush(i64 noundef %18) #10
  br label %replorigin_session_get_progress.exit

replorigin_session_get_progress.exit:             ; preds = %10, %21
  %22 = icmp eq i64 %16, 0
  br i1 %22, label %23, label %25

23:                                               ; preds = %replorigin_session_get_progress.exit
  %24 = getelementptr inbounds nuw i8, ptr %0, i64 28
  store i8 1, ptr %24, align 4
  br label %25

25:                                               ; preds = %replorigin_session_get_progress.exit, %23
  ret i64 %16
}